target datalayout = "e-m:e-p270:32:32-p271:32:32-p272:64:64-i64:64-i128:128-f80:128-n8:16:32:64-S128"
target triple = "x86_64-pc-linux-gnu"

%struct.SDL_BlitInfo = type { ptr, ptr, i32, i32, i32, i32, ptr, ptr, i32, i32, i32, i32, ptr, ptr, ptr, ptr, ptr, ptr, i32, i32, i8, i8, i8, i8 }

; Function Attrs: nounwind uwtable
define internal void @Blit_XRGB8888_RGB565(ptr noundef %0) #0 {
  %2 = alloca ptr, align 8
  %3 = alloca i32, align 4
  %4 = alloca i32, align 4
  %5 = alloca ptr, align 8
  %6 = alloca ptr, align 8
  %7 = alloca i32, align 4
  %8 = alloca i32, align 4
  %9 = alloca i32, align 4
  store ptr %0, ptr %2, align 8
  call void @llvm.lifetime.start.p0(i64 4, ptr %3) #3
  call void @llvm.lifetime.start.p0(i64 4, ptr %4) #3
  call void @llvm.lifetime.start.p0(i64 8, ptr %5) #3
  call void @llvm.lifetime.start.p0(i64 8, ptr %6) #3
  call void @llvm.lifetime.start.p0(i64 4, ptr %7) #3
  call void @llvm.lifetime.start.p0(i64 4, ptr %8) #3
  %10 = load ptr, ptr %2, align 8
  %11 = getelementptr inbounds nuw %struct.SDL_BlitInfo, ptr %10, i32 0, i32 8
  %12 = load i32, ptr %11, align 8
  store i32 %12, ptr %3, align 4
  %13 = load ptr, ptr %2, align 8
  %14 = getelementptr inbounds nuw %struct.SDL_BlitInfo, ptr %13, i32 0, i32 9
  %15 = load i32, ptr %14, align 4
  store i32 %15, ptr %4, align 4
  %16 = load ptr, ptr %2, align 8
  %17 = getelementptr inbounds nuw %struct.SDL_BlitInfo, ptr %16, i32 0, i32 1
  %18 = load ptr, ptr %17, align 8
  store ptr %18, ptr %5, align 8
  %19 = load ptr, ptr %2, align 8
  %20 = getelementptr inbounds nuw %struct.SDL_BlitInfo, ptr %19, i32 0, i32 5
  %21 = load i32, ptr %20, align 4
  %22 = sdiv i32 %21, 4
  store i32 %22, ptr %7, align 4
  %23 = load ptr, ptr %2, align 8
  %24 = getelementptr inbounds nuw %struct.SDL_BlitInfo, ptr %23, i32 0, i32 7
  %25 = load ptr, ptr %24, align 8
  store ptr %25, ptr %6, align 8
  %26 = load ptr, ptr %2, align 8
  %27 = getelementptr inbounds nuw %struct.SDL_BlitInfo, ptr %26, i32 0, i32 11
  %28 = load i32, ptr %27, align 4
  %29 = sdiv i32 %28, 2
  store i32 %29, ptr %8, align 4
  br label %30

30:                                               ; preds = %130, %1
  %31 = load i32, ptr %4, align 4
  %32 = add nsw i32 %31, -1
  store i32 %32, ptr %4, align 4
  %33 = icmp ne i32 %31, 0
  br i1 %33, label %34, label %139

34:                                               ; preds = %30
  call void @llvm.lifetime.start.p0(i64 4, ptr %9) #3
  %35 = load i32, ptr %3, align 4
  %36 = add nsw i32 %35, 3
  %37 = sdiv i32 %36, 4
  store i32 %37, ptr %9, align 4
  %38 = load i32, ptr %3, align 4
  %39 = and i32 %38, 3
  switch i32 %39, label %130 [
    i32 0, label %40
    i32 3, label %62
    i32 2, label %83
    i32 1, label %104
  ]

40:                                               ; preds = %34
  br label %41

41:                                               ; preds = %125, %40
  %42 = load ptr, ptr %5, align 8
  %43 = load i32, ptr %42, align 4
  %44 = and i32 %43, 16252928
  %45 = lshr i32 %44, 8
  %46 = load ptr, ptr %5, align 8
  %47 = load i32, ptr %46, align 4
  %48 = and i32 %47, 64512
  %49 = lshr i32 %48, 5
  %50 = or i32 %45, %49
  %51 = load ptr, ptr %5, align 8
  %52 = load i32, ptr %51, align 4
  %53 = and i32 %52, 248
  %54 = lshr i32 %53, 3
  %55 = or i32 %50, %54
  %56 = trunc i32 %55 to i16
  %57 = load ptr, ptr %6, align 8
  store i16 %56, ptr %57, align 2
  %58 = load ptr, ptr %5, align 8
  %59 = getelementptr inbounds nuw i32, ptr %58, i32 1
  store ptr %59, ptr %5, align 8
  %60 = load ptr, ptr %6, align 8
  %61 = getelementptr inbounds nuw i16, ptr %60, i32 1
  store ptr %61, ptr %6, align 8
  br label %62

62:                                               ; preds = %34, %41
  %63 = load ptr, ptr %5, align 8
  %64 = load i32, ptr %63, align 4
  %65 = and i32 %64, 16252928
  %66 = lshr i32 %65, 8
  %67 = load ptr, ptr %5, align 8
  %68 = load i32, ptr %67, align 4
  %69 = and i32 %68, 64512
  %70 = lshr i32 %69, 5
  %71 = or i32 %66, %70
  %72 = load ptr, ptr %5, align 8
  %73 = load i32, ptr %72, align 4
  %74 = and i32 %73, 248
  %75 = lshr i32 %74, 3
  %76 = or i32 %71, %75
  %77 = trunc i32 %76 to i16
  %78 = load ptr, ptr %6, align 8
  store i16 %77, ptr %78, align 2
  %79 = load ptr, ptr %5, align 8
  %80 = getelementptr inbounds nuw i32, ptr %79, i32 1
  store ptr %80, ptr %5, align 8
  %81 = load ptr, ptr %6, align 8
  %82 = getelementptr inbounds nuw i16, ptr %81, i32 1
  store ptr %82, ptr %6, align 8
  br label %83

83:                                               ; preds = %34, %62
  %84 = load ptr, ptr %5, align 8
  %85 = load i32, ptr %84, align 4
  %86 = and i32 %85, 16252928
  %87 = lshr i32 %86, 8
  %88 = load ptr, ptr %5, align 8
  %89 = load i32, ptr %88, align 4
  %90 = and i32 %89, 64512
  %91 = lshr i32 %90, 5
  %92 = or i32 %87, %91
  %93 = load ptr, ptr %5, align 8
  %94 = load i32, ptr %93, align 4
  %95 = and i32 %94, 248
  %96 = lshr i32 %95, 3
  %97 = or i32 %92, %96
  %98 = trunc i32 %97 to i16
  %99 = load ptr, ptr %6, align 8
  store i16 %98, ptr %99, align 2
  %100 = load ptr, ptr %5, align 8
  %101 = getelementptr inbounds nuw i32, ptr %100, i32 1
  store ptr %101, ptr %5, align 8
  %102 = load ptr, ptr %6, align 8
  %103 = getelementptr inbounds nuw i16, ptr %102, i32 1
  store ptr %103, ptr %6, align 8
  br label %104

104:                                              ; preds = %34, %83
  %105 = load ptr, ptr %5, align 8
  %106 = load i32, ptr %105, align 4
  %107 = and i32 %106, 16252928
  %108 = lshr i32 %107, 8
  %109 = load ptr, ptr %5, align 8
  %110 = load i32, ptr %109, align 4
  %111 = and i32 %110, 64512
  %112 = lshr i32 %111, 5
  %113 = or i32 %108, %112
  %114 = load ptr, ptr %5, align 8
  %115 = load i32, ptr %114, align 4
  %116 = and i32 %115, 248
  %117 = lshr i32 %116, 3
  %118 = or i32 %113, %117
  %119 = trunc i32 %118 to i16
  %120 = load ptr, ptr %6, align 8
  store i16 %119, ptr %120, align 2
  %121 = load ptr, ptr %5, align 8
  %122 = getelementptr inbounds nuw i32, ptr %121, i32 1
  store ptr %122, ptr %5, align 8
  %123 = load ptr, ptr %6, align 8
  %124 = getelementptr inbounds nuw i16, ptr %123, i32 1
  store ptr %124, ptr %6, align 8
  br label %125

125:                                              ; preds = %104
  %126 = load i32, ptr %9, align 4
  %127 = add nsw i32 %126, -1
  store i32 %127, ptr %9, align 4
  %128 = icmp sgt i32 %127, 0
  br i1 %128, label %41, label %129, !llvm.loop !61

129:                                              ; preds = %125
  br label %130

130:                                              ; preds = %129, %34
  call void @llvm.lifetime.end.p0(i64 4, ptr %9) #3
  %131 = load i32, ptr %7, align 4
  %132 = load ptr, ptr %5, align 8
  %133 = sext i32 %131 to i64
  %134 = getelementptr inbounds i32, ptr %132, i64 %133
  store ptr %134, ptr %5, align 8
  %135 = load i32, ptr %8, align 4
  %136 = load ptr, ptr %6, align 8
  %137 = sext i32 %135 to i64
  %138 = getelementptr inbounds i16, ptr %136, i64 %137
  store ptr %138, ptr %6, align 8
  br label %30, !llvm.loop !62

139:                                              ; preds = %30
  call void @llvm.lifetime.end.p0(i64 4, ptr %8) #3
  call void @llvm.lifetime.end.p0(i64 4, ptr %7) #3
  call void @llvm.lifetime.end.p0(i64 8, ptr %6) #3
  call void @llvm.lifetime.end.p0(i64 8, ptr %5) #3
  call void @llvm.lifetime.end.p0(i64 4, ptr %4) #3
  call void @llvm.lifetime.end.p0(i64 4, ptr %3) #3
  ret void
}